; Function Attrs: mustprogress nofree norecurse nosync nounwind willreturn memory(readwrite, inaccessiblemem: none) uwtable
define hidden noundef i32 @_ZN11klassVtable21initialize_from_superEP5Klass(ptr nocapture noundef nonnull readonly align 8 dereferenceable(16) %0, ptr noundef readonly %1) local_unnamed_addr #4 align 2 {
  %3 = icmp eq ptr %1, null
  br i1 %3, label %_ZN11klassVtable14copy_vtable_toEP11vtableEntry.exit, label %4

4:                                                ; preds = %2
  %5 = load ptr, ptr %0, align 8
  %6 = getelementptr inbounds i8, ptr %5, i64 188
  %7 = load i16, ptr %6, align 4
  %8 = and i16 %7, 1
  %.not.i = icmp eq i16 %8, 0
  br i1 %.not.i, label %_ZN11klassVtable24is_preinitialized_vtableEv.exit.thread, label %9

9:                                                ; preds = %4
  %10 = load i8, ptr @_ZN15MetaspaceShared19_remapped_readwriteE, align 1
  %11 = trunc i8 %10 to i1
  %12 = and i16 %7, 8
  %13 = icmp eq i16 %12, 0
  %or.cond.not = or i1 %13, %11
  br i1 %or.cond.not, label %_ZN11klassVtable24is_preinitialized_vtableEv.exit.thread, label %14

14:                                               ; preds = %9
  %15 = getelementptr inbounds i8, ptr %1, i64 160
  %16 = load i32, ptr %15, align 8
  br label %_ZN11klassVtable14copy_vtable_toEP11vtableEntry.exit

_ZN11klassVtable24is_preinitialized_vtableEv.exit.thread: ; preds = %4, %9
  %17 = getelementptr inbounds i8, ptr %1, i64 160
  %18 = load i32, ptr %17, align 8
  %19 = getelementptr inbounds i8, ptr %0, i64 8
  %20 = load i32, ptr %19, align 8
  %21 = sext i32 %20 to i64
  %22 = getelementptr inbounds i8, ptr %5, i64 %21
  %23 = getelementptr inbounds i8, ptr %1, i64 464
  switch i32 %18, label %54 [
    i32 8, label %24
    i32 7, label %28
    i32 6, label %32
    i32 5, label %36
    i32 4, label %40
    i32 3, label %44
    i32 2, label %48
    i32 1, label %52
    i32 0, label %_ZN11klassVtable14copy_vtable_toEP11vtableEntry.exit
  ]

24:                                               ; preds = %_ZN11klassVtable24is_preinitialized_vtableEv.exit.thread
  %25 = getelementptr inbounds i8, ptr %1, i64 520
  %26 = load ptr, ptr %25, align 8
  %27 = getelementptr inbounds i8, ptr %22, i64 56
  store ptr %26, ptr %27, align 8
  br label %28

28:                                               ; preds = %24, %_ZN11klassVtable24is_preinitialized_vtableEv.exit.thread
  %29 = getelementptr inbounds i8, ptr %1, i64 512
  %30 = load ptr, ptr %29, align 8
  %31 = getelementptr inbounds i8, ptr %22, i64 48
  store ptr %30, ptr %31, align 8
  br label %32

32:                                               ; preds = %28, %_ZN11klassVtable24is_preinitialized_vtableEv.exit.thread
  %33 = getelementptr inbounds i8, ptr %1, i64 504
  %34 = load ptr, ptr %33, align 8
  %35 = getelementptr inbounds i8, ptr %22, i64 40
  store ptr %34, ptr %35, align 8
  br label %36

36:                                               ; preds = %32, %_ZN11klassVtable24is_preinitialized_vtableEv.exit.thread
  %37 = getelementptr inbounds i8, ptr %1, i64 496
  %38 = load ptr, ptr %37, align 8
  %39 = getelementptr inbounds i8, ptr %22, i64 32
  store ptr %38, ptr %39, align 8
  br label %40

40:                                               ; preds = %36, %_ZN11klassVtable24is_preinitialized_vtableEv.exit.thread
  %41 = getelementptr inbounds i8, ptr %1, i64 488
  %42 = load ptr, ptr %41, align 8
  %43 = getelementptr inbounds i8, ptr %22, i64 24
  store ptr %42, ptr %43, align 8
  br label %44

44:                                               ; preds = %40, %_ZN11klassVtable24is_preinitialized_vtableEv.exit.thread
  %45 = getelementptr inbounds i8, ptr %1, i64 480
  %46 = load ptr, ptr %45, align 8
  %47 = getelementptr inbounds i8, ptr %22, i64 16
  store ptr %46, ptr %47, align 8
  br label %48

48:                                               ; preds = %44, %_ZN11klassVtable24is_preinitialized_vtableEv.exit.thread
  %49 = getelementptr inbounds i8, ptr %1, i64 472
  %50 = load ptr, ptr %49, align 8
  %51 = getelementptr inbounds i8, ptr %22, i64 8
  store ptr %50, ptr %51, align 8
  br label %52

52:                                               ; preds = %48, %_ZN11klassVtable24is_preinitialized_vtableEv.exit.thread
  %53 = load ptr, ptr %23, align 8
  store ptr %53, ptr %22, align 8
  br label %_ZN11klassVtable14copy_vtable_toEP11vtableEntry.exit

54:                                               ; preds = %_ZN11klassVtable24is_preinitialized_vtableEv.exit.thread
  %55 = sext i32 %18 to i64
  %56 = shl nsw i64 %55, 3
  tail call void @llvm.memcpy.p0.p0.i64(ptr align 8 %22, ptr nonnull align 8 %23, i64 %56, i1 false)
  br label %_ZN11klassVtable14copy_vtable_toEP11vtableEntry.exit

_ZN11klassVtable14copy_vtable_toEP11vtableEntry.exit: ; preds = %54, %52, %_ZN11klassVtable24is_preinitialized_vtableEv.exit.thread, %2, %14
  %.0 = phi i32 [ %16, %14 ], [ 0, %2 ], [ %18, %_ZN11klassVtable24is_preinitialized_vtableEv.exit.thread ], [ %18, %52 ], [ %18, %54 ]
  ret i32 %.0
}